; Function Attrs: nofree norecurse nosync nounwind memory(read, argmem: readwrite, inaccessiblemem: none) uwtable
define i64 @HUFv05_decompress1X4_usingDTable(ptr noundef %0, i64 noundef %1, ptr noundef %2, i64 noundef %3, ptr noundef readonly captures(none) %4) local_unnamed_addr #12 {
  %6 = alloca %struct.BITv05_DStream_t, align 8
  %7 = load i32, ptr %4, align 4, !tbaa !17
  call void @llvm.lifetime.start.p0(i64 32, ptr nonnull %6) #27
  %8 = icmp eq i64 %3, 0
  br i1 %8, label %BITv05_initDStream.exit.thread, label %9

9:                                                ; preds = %5
  %10 = icmp ugt i64 %3, 7
  %11 = getelementptr inbounds nuw i8, ptr %6, i64 24
  store ptr %2, ptr %11, align 8, !tbaa !36
  br i1 %10, label %12, label %17

12:                                               ; preds = %9
  %13 = getelementptr inbounds nuw i8, ptr %2, i64 %3
  %14 = getelementptr inbounds i8, ptr %13, i64 -8
  %15 = getelementptr inbounds nuw i8, ptr %6, i64 16
  store ptr %14, ptr %15, align 8, !tbaa !40
  %.val.i = load i64, ptr %14, align 1
  store i64 %.val.i, ptr %6, align 8, !tbaa !41
  %16 = icmp ult i64 %.val.i, 72057594037927936
  br i1 %16, label %BITv05_initDStream.exit.thread, label %BITv05_initDStream.exit

17:                                               ; preds = %9
  %18 = getelementptr inbounds nuw i8, ptr %6, i64 16
  store ptr %2, ptr %18, align 8, !tbaa !40
  %19 = load i8, ptr %2, align 1, !tbaa !27
  %20 = zext i8 %19 to i64
  store i64 %20, ptr %6, align 8, !tbaa !41
  switch i64 %3, label %62 [
    i64 7, label %21
    i64 6, label %27
    i64 5, label %34
    i64 4, label %41
    i64 3, label %48
    i64 2, label %55
  ]

21:                                               ; preds = %17
  %22 = getelementptr inbounds nuw i8, ptr %2, i64 6
  %23 = load i8, ptr %22, align 1, !tbaa !27
  %24 = zext i8 %23 to i64
  %25 = shl nuw nsw i64 %24, 48
  %26 = or disjoint i64 %25, %20
  br label %27

27:                                               ; preds = %21, %17
  %28 = phi i64 [ %26, %21 ], [ %20, %17 ]
  %29 = getelementptr inbounds nuw i8, ptr %2, i64 5
  %30 = load i8, ptr %29, align 1, !tbaa !27
  %31 = zext i8 %30 to i64
  %32 = shl nuw nsw i64 %31, 40
  %33 = add nuw nsw i64 %32, %28
  br label %34

34:                                               ; preds = %27, %17
  %35 = phi i64 [ %33, %27 ], [ %20, %17 ]
  %36 = getelementptr inbounds nuw i8, ptr %2, i64 4
  %37 = load i8, ptr %36, align 1, !tbaa !27
  %38 = zext i8 %37 to i64
  %39 = shl nuw nsw i64 %38, 32
  %40 = add nuw nsw i64 %39, %35
  br label %41

41:                                               ; preds = %34, %17
  %42 = phi i64 [ %40, %34 ], [ %20, %17 ]
  %43 = getelementptr inbounds nuw i8, ptr %2, i64 3
  %44 = load i8, ptr %43, align 1, !tbaa !27
  %45 = zext i8 %44 to i64
  %46 = shl nuw nsw i64 %45, 24
  %47 = add nuw nsw i64 %46, %42
  br label %48

48:                                               ; preds = %41, %17
  %49 = phi i64 [ %47, %41 ], [ %20, %17 ]
  %50 = getelementptr inbounds nuw i8, ptr %2, i64 2
  %51 = load i8, ptr %50, align 1, !tbaa !27
  %52 = zext i8 %51 to i64
  %53 = shl nuw nsw i64 %52, 16
  %54 = add nuw nsw i64 %53, %49
  br label %55

55:                                               ; preds = %48, %17
  %56 = phi i64 [ %54, %48 ], [ %20, %17 ]
  %57 = getelementptr inbounds nuw i8, ptr %2, i64 1
  %58 = load i8, ptr %57, align 1, !tbaa !27
  %59 = zext i8 %58 to i64
  %60 = shl nuw nsw i64 %59, 8
  %61 = add nuw nsw i64 %60, %56
  store i64 %61, ptr %6, align 8, !tbaa !41
  br label %62

62:                                               ; preds = %55, %17
  %63 = getelementptr i8, ptr %2, i64 %3
  %64 = getelementptr i8, ptr %63, i64 -1
  %65 = load i8, ptr %64, align 1, !tbaa !27
  %66 = icmp eq i8 %65, 0
  br i1 %66, label %BITv05_initDStream.exit.thread, label %BITv05_initDStream.exit.thread19

BITv05_initDStream.exit.thread19:                 ; preds = %62
  %67 = zext i8 %65 to i32
  %68 = tail call range(i32 0, 33) i32 @llvm.ctlz.i32(i32 %67, i1 true)
  %69 = getelementptr inbounds nuw i8, ptr %6, i64 8
  %70 = trunc nuw i64 %3 to i32
  %71 = shl nuw nsw i32 %70, 3
  %reass.sub = sub nsw i32 %68, %71
  %72 = add nsw i32 %reass.sub, 41
  store i32 %72, ptr %69, align 8, !tbaa !42
  br label %80

BITv05_initDStream.exit:                          ; preds = %12
  %73 = lshr i64 %.val.i, 56
  %74 = trunc nuw nsw i64 %73 to i32
  %75 = tail call range(i32 0, 33) i32 @llvm.ctlz.i32(i32 %74, i1 true)
  %76 = xor i32 %75, 31
  %77 = sub nuw nsw i32 8, %76
  %78 = getelementptr inbounds nuw i8, ptr %6, i64 8
  store i32 %77, ptr %78, align 8, !tbaa !42
  %79 = icmp ult i64 %3, -119
  br i1 %79, label %80, label %BITv05_initDStream.exit.thread

80:                                               ; preds = %BITv05_initDStream.exit.thread19, %BITv05_initDStream.exit
  %81 = getelementptr inbounds nuw i8, ptr %4, i64 4
  %82 = getelementptr inbounds nuw i8, ptr %0, i64 %1
  call fastcc void @HUFv05_decodeStreamX4(ptr noundef %0, ptr noundef %6, ptr noundef %82, ptr noundef nonnull %81, i32 noundef %7)
  %83 = getelementptr inbounds nuw i8, ptr %6, i64 16
  %84 = load ptr, ptr %83, align 8, !tbaa !40
  %85 = load ptr, ptr %11, align 8, !tbaa !36
  %86 = icmp eq ptr %84, %85
  %87 = getelementptr inbounds nuw i8, ptr %6, i64 8
  %88 = load i32, ptr %87, align 8
  %.fr = freeze i32 %88
  %.not = icmp eq i32 %.fr, 64
  %or.cond = and i1 %86, %.not
  %spec.select = select i1 %or.cond, i64 %1, i64 -20
  br label %BITv05_initDStream.exit.thread

BITv05_initDStream.exit.thread:                   ; preds = %5, %80, %62, %12, %BITv05_initDStream.exit
  %.0 = phi i64 [ %3, %BITv05_initDStream.exit ], [ -1, %62 ], [ -1, %12 ], [ %spec.select, %80 ], [ -72, %5 ]
  call void @llvm.lifetime.end.p0(i64 32, ptr nonnull %6) #27
  ret i64 %.0
}